; Function Attrs: nounwind uwtable
define internal void @cf_hc_destroy(ptr noundef %0, ptr noundef %1) #0 {
  %3 = getelementptr inbounds nuw i8, ptr %0, i64 16
  %4 = load ptr, ptr %3, align 8, !tbaa !4
  %.not = icmp eq ptr %1, null
  br i1 %.not, label %thread-pre-split, label %5

5:                                                ; preds = %2
  %6 = getelementptr inbounds nuw i8, ptr %1, i64 2562
  %7 = load i64, ptr %6, align 2
  %8 = and i64 %7, 134217728
  %.not14 = icmp eq i64 %8, 0
  br i1 %.not14, label %thread-pre-split, label %9

9:                                                ; preds = %5
  %10 = getelementptr inbounds nuw i8, ptr %1, i64 4712
  %11 = load ptr, ptr %10, align 8, !tbaa !13
  %.not15 = icmp eq ptr %11, null
  br i1 %.not15, label %16, label %12

12:                                               ; preds = %9
  %13 = getelementptr inbounds nuw i8, ptr %11, i64 8
  %14 = load i32, ptr %13, align 8, !tbaa !81
  %15 = icmp sgt i32 %14, 0
  br i1 %15, label %16, label %thread-pre-split

16:                                               ; preds = %9, %12
  %17 = load ptr, ptr %0, align 8, !tbaa !83
  %18 = getelementptr inbounds nuw i8, ptr %17, i64 12
  %19 = load i32, ptr %18, align 4, !tbaa !84
  %20 = icmp sgt i32 %19, 0
  br i1 %20, label %21, label %thread-pre-split

21:                                               ; preds = %16
  tail call void (ptr, ptr, ptr, ...) @Curl_trc_cf_infof(ptr noundef nonnull %1, ptr noundef nonnull %0, ptr noundef nonnull @.str.1) #4
  %.val.pr.pre = load ptr, ptr %3, align 8, !tbaa !4
  br label %thread-pre-split

thread-pre-split:                                 ; preds = %21, %16, %12, %5, %2
  %.val = phi ptr [ %4, %2 ], [ %4, %5 ], [ %4, %12 ], [ %4, %16 ], [ %.val.pr.pre, %21 ]
  %.not.i = icmp eq ptr %.val, null
  br i1 %.not.i, label %cf_hc_reset.exit, label %22

22:                                               ; preds = %thread-pre-split
  %23 = getelementptr inbounds nuw i8, ptr %.val, i64 48
  %24 = load ptr, ptr %23, align 8, !tbaa !86
  %.not.i.i = icmp eq ptr %24, null
  br i1 %.not.i.i, label %cf_hc_baller_reset.exit.i, label %25

25:                                               ; preds = %22
  tail call void @Curl_conn_cf_close(ptr noundef nonnull %24, ptr noundef %1) #4
  tail call void @Curl_conn_cf_discard_chain(ptr noundef nonnull %23, ptr noundef %1) #4
  store ptr null, ptr %23, align 8, !tbaa !86
  br label %cf_hc_baller_reset.exit.i

cf_hc_baller_reset.exit.i:                        ; preds = %25, %22
  %26 = getelementptr inbounds nuw i8, ptr %.val, i64 56
  store i32 0, ptr %26, align 8, !tbaa !88
  %27 = getelementptr inbounds nuw i8, ptr %.val, i64 80
  store i32 -1, ptr %27, align 8, !tbaa !89
  %28 = getelementptr inbounds nuw i8, ptr %.val, i64 96
  %29 = load ptr, ptr %28, align 8, !tbaa !86
  %.not.i12.i = icmp eq ptr %29, null
  br i1 %.not.i12.i, label %cf_hc_baller_reset.exit13.i, label %30

30:                                               ; preds = %cf_hc_baller_reset.exit.i
  tail call void @Curl_conn_cf_close(ptr noundef nonnull %29, ptr noundef %1) #4
  tail call void @Curl_conn_cf_discard_chain(ptr noundef nonnull %28, ptr noundef %1) #4
  store ptr null, ptr %28, align 8, !tbaa !86
  br label %cf_hc_baller_reset.exit13.i

cf_hc_baller_reset.exit13.i:                      ; preds = %30, %cf_hc_baller_reset.exit.i
  %31 = getelementptr inbounds nuw i8, ptr %.val, i64 104
  store i32 0, ptr %31, align 8, !tbaa !88
  %32 = getelementptr inbounds nuw i8, ptr %.val, i64 128
  store i32 -1, ptr %32, align 8, !tbaa !89
  store i32 0, ptr %.val, align 8, !tbaa !90
  %33 = getelementptr inbounds nuw i8, ptr %.val, i64 32
  store i32 0, ptr %33, align 8, !tbaa !92
  %34 = getelementptr inbounds nuw i8, ptr %1, i64 760
  %35 = load i32, ptr %34, align 8, !tbaa !93
  %36 = getelementptr inbounds nuw i8, ptr %.val, i64 140
  store i32 %35, ptr %36, align 4, !tbaa !94
  %37 = lshr i32 %35, 1
  %38 = getelementptr inbounds nuw i8, ptr %.val, i64 136
  store i32 %37, ptr %38, align 8, !tbaa !95
  br label %cf_hc_reset.exit

cf_hc_reset.exit:                                 ; preds = %thread-pre-split, %cf_hc_baller_reset.exit13.i
  %39 = load ptr, ptr @Curl_cfree, align 8, !tbaa !96
  tail call void %39(ptr noundef %4) #4
  ret void
}